; Function Attrs: inlinehint mustprogress nounwind uwtable
define internal fastcc void @_ZNSt5queueIPKN3ue212_GLOBAL__N_18TreeNodeESt5dequeIS4_SaIS4_EEED2Ev(ptr noundef nonnull readonly align 8 captures(none) dereferenceable(80) %0) unnamed_addr #13 align 2 personality ptr @__gxx_personality_v0 {
  %2 = load ptr, ptr %0, align 8
  %.not.i.i = icmp eq ptr %2, null
  br i1 %.not.i.i, label %_ZNSt5dequeIPKN3ue212_GLOBAL__N_18TreeNodeESaIS4_EED2Ev.exit, label %3

3:                                                ; preds = %1
  %4 = getelementptr inbounds nuw i8, ptr %0, i64 72
  %5 = getelementptr inbounds nuw i8, ptr %0, i64 40
  %6 = load ptr, ptr %5, align 8
  %7 = load ptr, ptr %4, align 8
  %8 = getelementptr inbounds nuw i8, ptr %7, i64 8
  %9 = icmp ult ptr %6, %8
  br i1 %9, label %.lr.ph.i.i.i, label %_ZNSt11_Deque_baseIPKN3ue212_GLOBAL__N_18TreeNodeESaIS4_EE16_M_destroy_nodesEPPS4_S8_.exit.i.i

.lr.ph.i.i.i:                                     ; preds = %3, %.lr.ph.i.i.i
  %.01.i.i.i = phi ptr [ %11, %.lr.ph.i.i.i ], [ %6, %3 ]
  %10 = load ptr, ptr %.01.i.i.i, align 8
  tail call void @_ZdlPv(ptr noundef %10) #22
  %11 = getelementptr inbounds nuw i8, ptr %.01.i.i.i, i64 8
  %12 = icmp ult ptr %.01.i.i.i, %7
  br i1 %12, label %.lr.ph.i.i.i, label %_ZNSt11_Deque_baseIPKN3ue212_GLOBAL__N_18TreeNodeESaIS4_EE16_M_destroy_nodesEPPS4_S8_.exit.loopexit.i.i, !llvm.loop !13

_ZNSt11_Deque_baseIPKN3ue212_GLOBAL__N_18TreeNodeESaIS4_EE16_M_destroy_nodesEPPS4_S8_.exit.loopexit.i.i: ; preds = %.lr.ph.i.i.i
  %.pre.i.i = load ptr, ptr %0, align 8
  br label %_ZNSt11_Deque_baseIPKN3ue212_GLOBAL__N_18TreeNodeESaIS4_EE16_M_destroy_nodesEPPS4_S8_.exit.i.i

_ZNSt11_Deque_baseIPKN3ue212_GLOBAL__N_18TreeNodeESaIS4_EE16_M_destroy_nodesEPPS4_S8_.exit.i.i: ; preds = %_ZNSt11_Deque_baseIPKN3ue212_GLOBAL__N_18TreeNodeESaIS4_EE16_M_destroy_nodesEPPS4_S8_.exit.loopexit.i.i, %3
  %13 = phi ptr [ %.pre.i.i, %_ZNSt11_Deque_baseIPKN3ue212_GLOBAL__N_18TreeNodeESaIS4_EE16_M_destroy_nodesEPPS4_S8_.exit.loopexit.i.i ], [ %2, %3 ]
  tail call void @_ZdlPv(ptr noundef %13) #22
  br label %_ZNSt5dequeIPKN3ue212_GLOBAL__N_18TreeNodeESaIS4_EED2Ev.exit

_ZNSt5dequeIPKN3ue212_GLOBAL__N_18TreeNodeESaIS4_EED2Ev.exit: ; preds = %1, %_ZNSt11_Deque_baseIPKN3ue212_GLOBAL__N_18TreeNodeESaIS4_EE16_M_destroy_nodesEPPS4_S8_.exit.i.i
  ret void
}